target datalayout = "e-m:e-p270:32:32-p271:32:32-p272:64:64-i64:64-i128:128-f80:128-n8:16:32:64-S128"
target triple = "x86_64-pc-linux-gnu"

%struct.strbuf = type { i64, i64, ptr }
%struct.hashmap = type { ptr, ptr, ptr, i32, i32, i32, i32, i8 }
%struct.pattern_list = type { i32, i32, ptr, ptr, i32, i32, %struct.hashmap, %struct.hashmap }

@core_sparse_checkout_cone = external global i32, align 4
@empty_base = internal global ptr @.str.8, align 8
@strbuf_slopbuf = external global [0 x i8], align 1
@.str.36 = private unnamed_addr constant [11 x i8] c"./strbuf.h\00", align 1
@.str.37 = private unnamed_addr constant [30 x i8] c"strbuf_setlen() beyond buffer\00", align 1
@__const.add_patterns_from_input.line = private unnamed_addr constant %struct.strbuf { i64 0, i64 0, ptr @strbuf_slopbuf }, align 8
@__const.add_patterns_from_input.unquoted = private unnamed_addr constant %struct.strbuf { i64 0, i64 0, ptr @strbuf_slopbuf }, align 8
@.str.57 = private unnamed_addr constant [38 x i8] c"unable to unquote C-style string '%s'\00", align 1
@__const.add_patterns_from_input.line.58 = private unnamed_addr constant %struct.strbuf { i64 0, i64 0, ptr @strbuf_slopbuf }, align 8

; Function Attrs: inlinehint nounwind uwtable
define internal void @strbuf_addstr(ptr noundef %0, ptr noundef %1) #4 {
  %3 = alloca ptr, align 8
  %4 = alloca ptr, align 8
  store ptr %0, ptr %3, align 8, !tbaa !152
  store ptr %1, ptr %4, align 8, !tbaa !11
  %5 = load ptr, ptr %3, align 8, !tbaa !152
  %6 = load ptr, ptr %4, align 8, !tbaa !11
  %7 = load ptr, ptr %4, align 8, !tbaa !11
  %8 = call i64 @strlen(ptr noundef %7) #11
  call void @strbuf_add(ptr noundef %5, ptr noundef %6, i64 noundef %8)
  ret void
}

; Function Attrs: inlinehint nounwind uwtable
define internal void @strbuf_swap(ptr noundef %0, ptr noundef %1) #4 {
  %3 = alloca ptr, align 8
  %4 = alloca ptr, align 8
  %5 = alloca ptr, align 8
  %6 = alloca ptr, align 8
  %7 = alloca [24 x i8], align 16
  store ptr %0, ptr %3, align 8, !tbaa !152
  store ptr %1, ptr %4, align 8, !tbaa !152
  br label %8

8:                                                ; preds = %2
  call void @llvm.lifetime.start.p0(i64 8, ptr %5) #9
  %9 = load ptr, ptr %3, align 8, !tbaa !152
  store ptr %9, ptr %5, align 8, !tbaa !15
  call void @llvm.lifetime.start.p0(i64 8, ptr %6) #9
  %10 = load ptr, ptr %4, align 8, !tbaa !152
  store ptr %10, ptr %6, align 8, !tbaa !15
  call void @llvm.lifetime.start.p0(i64 24, ptr %7) #9
  %11 = getelementptr inbounds [24 x i8], ptr %7, i64 0, i64 0
  %12 = load ptr, ptr %5, align 8, !tbaa !15
  call void @llvm.memcpy.p0.p0.i64(ptr align 16 %11, ptr align 1 %12, i64 24, i1 false)
  %13 = load ptr, ptr %5, align 8, !tbaa !15
  %14 = load ptr, ptr %6, align 8, !tbaa !15
  call void @llvm.memcpy.p0.p0.i64(ptr align 1 %13, ptr align 1 %14, i64 24, i1 false)
  %15 = load ptr, ptr %6, align 8, !tbaa !15
  %16 = getelementptr inbounds [24 x i8], ptr %7, i64 0, i64 0
  call void @llvm.memcpy.p0.p0.i64(ptr align 1 %15, ptr align 16 %16, i64 24, i1 false)
  call void @llvm.lifetime.end.p0(i64 24, ptr %7) #9
  call void @llvm.lifetime.end.p0(i64 8, ptr %6) #9
  call void @llvm.lifetime.end.p0(i64 8, ptr %5) #9
  br label %17

17:                                               ; preds = %8
  ret void
}

; Function Attrs: inlinehint nounwind uwtable
define internal void @strbuf_setlen(ptr noundef %0, i64 noundef %1) #4 {
  %3 = alloca ptr, align 8
  %4 = alloca i64, align 8
  store ptr %0, ptr %3, align 8, !tbaa !152
  store i64 %1, ptr %4, align 8, !tbaa !91
  %5 = load i64, ptr %4, align 8, !tbaa !91
  %6 = load ptr, ptr %3, align 8, !tbaa !152
  %7 = getelementptr inbounds nuw %struct.strbuf, ptr %6, i32 0, i32 0
  %8 = load i64, ptr %7, align 8, !tbaa !154
  %9 = icmp ne i64 %8, 0
  br i1 %9, label %10, label %15

10:                                               ; preds = %2
  %11 = load ptr, ptr %3, align 8, !tbaa !152
  %12 = getelementptr inbounds nuw %struct.strbuf, ptr %11, i32 0, i32 0
  %13 = load i64, ptr %12, align 8, !tbaa !154
  %14 = sub i64 %13, 1
  br label %16

15:                                               ; preds = %2
  br label %16

16:                                               ; preds = %15, %10
  %17 = phi i64 [ %14, %10 ], [ 0, %15 ]
  %18 = icmp ugt i64 %5, %17
  br i1 %18, label %19, label %20

19:                                               ; preds = %16
  call void (ptr, i32, ptr, ...) @BUG_fl(ptr noundef @.str.36, i32 noundef 167, ptr noundef @.str.37) #10
  unreachable

20:                                               ; preds = %16
  %21 = load i64, ptr %4, align 8, !tbaa !91
  %22 = load ptr, ptr %3, align 8, !tbaa !152
  %23 = getelementptr inbounds nuw %struct.strbuf, ptr %22, i32 0, i32 1
  store i64 %21, ptr %23, align 8, !tbaa !134
  %24 = load ptr, ptr %3, align 8, !tbaa !152
  %25 = getelementptr inbounds nuw %struct.strbuf, ptr %24, i32 0, i32 2
  %26 = load ptr, ptr %25, align 8, !tbaa !148
  %27 = icmp ne ptr %26, @strbuf_slopbuf
  br i1 %27, label %28, label %34

28:                                               ; preds = %20
  %29 = load ptr, ptr %3, align 8, !tbaa !152
  %30 = getelementptr inbounds nuw %struct.strbuf, ptr %29, i32 0, i32 2
  %31 = load ptr, ptr %30, align 8, !tbaa !148
  %32 = load i64, ptr %4, align 8, !tbaa !91
  %33 = getelementptr inbounds nuw i8, ptr %31, i64 %32
  store i8 0, ptr %33, align 1, !tbaa !90
  br label %35

34:                                               ; preds = %20
  br label %35

35:                                               ; preds = %34, %28
  ret void
}

; Function Attrs: nounwind uwtable
define internal void @add_patterns_from_input(ptr noundef %0, i32 noundef %1, ptr noundef %2, ptr noundef %3) #0 {
  %5 = alloca ptr, align 8
  %6 = alloca i32, align 4
  %7 = alloca ptr, align 8
  %8 = alloca ptr, align 8
  %9 = alloca i32, align 4
  %10 = alloca %struct.strbuf, align 8
  %11 = alloca %struct.strbuf, align 8
  %12 = alloca %struct.strbuf, align 8
  store ptr %0, ptr %5, align 8, !tbaa !96
  store i32 %1, ptr %6, align 4, !tbaa !4
  store ptr %2, ptr %7, align 8, !tbaa !8
  store ptr %3, ptr %8, align 8, !tbaa !65
  call void @llvm.lifetime.start.p0(i64 4, ptr %9) #9
  %13 = load i32, ptr @core_sparse_checkout_cone, align 4, !tbaa !4
  %14 = icmp ne i32 %13, 0
  br i1 %14, label %15, label %67

15:                                               ; preds = %4
  call void @llvm.lifetime.start.p0(i64 24, ptr %10) #9
  call void @llvm.memcpy.p0.p0.i64(ptr align 8 %10, ptr align 8 @__const.add_patterns_from_input.line, i64 24, i1 false)
  %16 = load ptr, ptr %5, align 8, !tbaa !96
  %17 = getelementptr inbounds nuw %struct.pattern_list, ptr %16, i32 0, i32 6
  call void @hashmap_init(ptr noundef %17, ptr noundef @pl_hashmap_cmp, ptr noundef null, i64 noundef 0)
  %18 = load ptr, ptr %5, align 8, !tbaa !96
  %19 = getelementptr inbounds nuw %struct.pattern_list, ptr %18, i32 0, i32 7
  call void @hashmap_init(ptr noundef %19, ptr noundef @pl_hashmap_cmp, ptr noundef null, i64 noundef 0)
  %20 = load ptr, ptr %5, align 8, !tbaa !96
  %21 = getelementptr inbounds nuw %struct.pattern_list, ptr %20, i32 0, i32 4
  store i32 1, ptr %21, align 8, !tbaa !48
  %22 = load ptr, ptr %8, align 8, !tbaa !65
  %23 = icmp ne ptr %22, null
  br i1 %23, label %24, label %50

24:                                               ; preds = %15
  call void @llvm.lifetime.start.p0(i64 24, ptr %11) #9
  call void @llvm.memcpy.p0.p0.i64(ptr align 8 %11, ptr align 8 @__const.add_patterns_from_input.unquoted, i64 24, i1 false)
  br label %25

25:                                               ; preds = %47, %24
  %26 = load ptr, ptr %8, align 8, !tbaa !65
  %27 = call i32 @strbuf_getline(ptr noundef %10, ptr noundef %26)
  %28 = icmp ne i32 %27, 0
  %29 = xor i1 %28, true
  br i1 %29, label %30, label %49

30:                                               ; preds = %25
  %31 = getelementptr inbounds nuw %struct.strbuf, ptr %10, i32 0, i32 2
  %32 = load ptr, ptr %31, align 8, !tbaa !148
  %33 = getelementptr inbounds i8, ptr %32, i64 0
  %34 = load i8, ptr %33, align 1, !tbaa !90
  %35 = sext i8 %34 to i32
  %36 = icmp eq i32 %35, 34
  br i1 %36, label %37, label %47

37:                                               ; preds = %30
  call void @strbuf_setlen(ptr noundef %11, i64 noundef 0)
  %38 = getelementptr inbounds nuw %struct.strbuf, ptr %10, i32 0, i32 2
  %39 = load ptr, ptr %38, align 8, !tbaa !148
  %40 = call i32 @unquote_c_style(ptr noundef %11, ptr noundef %39, ptr noundef null)
  %41 = icmp ne i32 %40, 0
  br i1 %41, label %42, label %46

42:                                               ; preds = %37
  %43 = call ptr @_(ptr noundef @.str.57)
  %44 = getelementptr inbounds nuw %struct.strbuf, ptr %10, i32 0, i32 2
  %45 = load ptr, ptr %44, align 8, !tbaa !148
  call void (ptr, ...) @die(ptr noundef %43, ptr noundef %45) #10
  unreachable

46:                                               ; preds = %37
  call void @strbuf_swap(ptr noundef %11, ptr noundef %10)
  br label %47

47:                                               ; preds = %46, %30
  %48 = load ptr, ptr %5, align 8, !tbaa !96
  call void @strbuf_to_cone_pattern(ptr noundef %10, ptr noundef %48)
  br label %25, !llvm.loop !171

49:                                               ; preds = %25
  call void @strbuf_release(ptr noundef %11)
  call void @llvm.lifetime.end.p0(i64 24, ptr %11) #9
  br label %66

50:                                               ; preds = %15
  store i32 0, ptr %9, align 4, !tbaa !4
  br label %51

51:                                               ; preds = %62, %50
  %52 = load i32, ptr %9, align 4, !tbaa !4
  %53 = load i32, ptr %6, align 4, !tbaa !4
  %54 = icmp slt i32 %52, %53
  br i1 %54, label %55, label %65

55:                                               ; preds = %51
  call void @strbuf_setlen(ptr noundef %10, i64 noundef 0)
  %56 = load ptr, ptr %7, align 8, !tbaa !8
  %57 = load i32, ptr %9, align 4, !tbaa !4
  %58 = sext i32 %57 to i64
  %59 = getelementptr inbounds ptr, ptr %56, i64 %58
  %60 = load ptr, ptr %59, align 8, !tbaa !11
  call void @strbuf_addstr(ptr noundef %10, ptr noundef %60)
  %61 = load ptr, ptr %5, align 8, !tbaa !96
  call void @strbuf_to_cone_pattern(ptr noundef %10, ptr noundef %61)
  br label %62

62:                                               ; preds = %55
  %63 = load i32, ptr %9, align 4, !tbaa !4
  %64 = add nsw i32 %63, 1
  store i32 %64, ptr %9, align 4, !tbaa !4
  br label %51, !llvm.loop !172

65:                                               ; preds = %51
  br label %66

66:                                               ; preds = %65, %49
  call void @strbuf_release(ptr noundef %10)
  call void @llvm.lifetime.end.p0(i64 24, ptr %10) #9
  br label %100

67:                                               ; preds = %4
  %68 = load ptr, ptr %8, align 8, !tbaa !65
  %69 = icmp ne ptr %68, null
  br i1 %69, label %70, label %82

70:                                               ; preds = %67
  call void @llvm.lifetime.start.p0(i64 24, ptr %12) #9
  call void @llvm.memcpy.p0.p0.i64(ptr align 8 %12, ptr align 8 @__const.add_patterns_from_input.line.58, i64 24, i1 false)
  br label %71

71:                                               ; preds = %76, %70
  %72 = load ptr, ptr %8, align 8, !tbaa !65
  %73 = call i32 @strbuf_getline(ptr noundef %12, ptr noundef %72)
  %74 = icmp ne i32 %73, 0
  %75 = xor i1 %74, true
  br i1 %75, label %76, label %81

76:                                               ; preds = %71
  %77 = getelementptr inbounds nuw %struct.strbuf, ptr %12, i32 0, i32 2
  %78 = load ptr, ptr %77, align 8, !tbaa !148
  %79 = load ptr, ptr @empty_base, align 8, !tbaa !11
  %80 = load ptr, ptr %5, align 8, !tbaa !96
  call void @add_pattern(ptr noundef %78, ptr noundef %79, i32 noundef 0, ptr noundef %80, i32 noundef 0)
  br label %71, !llvm.loop !173

81:                                               ; preds = %71
  call void @strbuf_release(ptr noundef %12)
  call void @llvm.lifetime.end.p0(i64 24, ptr %12) #9
  br label %99

82:                                               ; preds = %67
  store i32 0, ptr %9, align 4, !tbaa !4
  br label %83

83:                                               ; preds = %95, %82
  %84 = load i32, ptr %9, align 4, !tbaa !4
  %85 = load i32, ptr %6, align 4, !tbaa !4
  %86 = icmp slt i32 %84, %85
  br i1 %86, label %87, label %98

87:                                               ; preds = %83
  %88 = load ptr, ptr %7, align 8, !tbaa !8
  %89 = load i32, ptr %9, align 4, !tbaa !4
  %90 = sext i32 %89 to i64
  %91 = getelementptr inbounds ptr, ptr %88, i64 %90
  %92 = load ptr, ptr %91, align 8, !tbaa !11
  %93 = load ptr, ptr @empty_base, align 8, !tbaa !11
  %94 = load ptr, ptr %5, align 8, !tbaa !96
  call void @add_pattern(ptr noundef %92, ptr noundef %93, i32 noundef 0, ptr noundef %94, i32 noundef 0)
  br label %95

95:                                               ; preds = %87
  %96 = load i32, ptr %9, align 4, !tbaa !4
  %97 = add nsw i32 %96, 1
  store i32 %97, ptr %9, align 4, !tbaa !4
  br label %83, !llvm.loop !174

98:                                               ; preds = %83
  br label %99

99:                                               ; preds = %98, %81
  br label %100

100:                                              ; preds = %99, %66
  call void @llvm.lifetime.end.p0(i64 4, ptr %9) #9
  ret void
}