; Function Attrs: nounwind uwtable
define internal fastcc void @add_patterns_from_input(ptr noundef %0, i32 noundef %1, ptr noundef readonly captures(none) %2, ptr noundef %3) unnamed_addr #0 {
  %5 = alloca [24 x i8], align 16
  %6 = alloca %struct.strbuf, align 8
  %7 = alloca %struct.strbuf, align 8
  %8 = alloca %struct.strbuf, align 8
  %9 = load i32, ptr @core_sparse_checkout_cone, align 4, !tbaa !37
  %.not = icmp eq i32 %9, 0
  br i1 %.not, label %43, label %10

10:                                               ; preds = %4
  call void @llvm.lifetime.start.p0(i64 24, ptr nonnull %6) #13
  call void @llvm.memcpy.p0.p0.i64(ptr noundef nonnull align 8 dereferenceable(24) %6, ptr noundef nonnull align 8 dereferenceable(24) @__const.check_rules.unquoted, i64 24, i1 false)
  %11 = getelementptr inbounds nuw i8, ptr %0, i64 32
  tail call void @hashmap_init(ptr noundef nonnull %11, ptr noundef nonnull @pl_hashmap_cmp, ptr noundef null, i64 noundef 0) #13
  %12 = getelementptr inbounds nuw i8, ptr %0, i64 80
  tail call void @hashmap_init(ptr noundef nonnull %12, ptr noundef nonnull @pl_hashmap_cmp, ptr noundef null, i64 noundef 0) #13
  %13 = getelementptr inbounds nuw i8, ptr %0, i64 24
  store i32 1, ptr %13, align 8, !tbaa !38
  %.not24 = icmp eq ptr %3, null
  br i1 %.not24, label %.preheader30, label %17

.preheader30:                                     ; preds = %10
  %14 = icmp sgt i32 %1, 0
  br i1 %14, label %.lr.ph34, label %.loopexit31

.lr.ph34:                                         ; preds = %.preheader30
  %15 = getelementptr inbounds nuw i8, ptr %6, i64 8
  %16 = getelementptr inbounds nuw i8, ptr %6, i64 16
  %wide.trip.count = zext nneg i32 %1 to i64
  br label %37

17:                                               ; preds = %10
  call void @llvm.lifetime.start.p0(i64 24, ptr nonnull %7) #13
  call void @llvm.memcpy.p0.p0.i64(ptr noundef nonnull align 8 dereferenceable(24) %7, ptr noundef nonnull align 8 dereferenceable(24) @__const.check_rules.unquoted, i64 24, i1 false)
  %18 = call i32 @strbuf_getline(ptr noundef nonnull %6, ptr noundef nonnull %3) #13
  %.not2532 = icmp eq i32 %18, 0
  br i1 %.not2532, label %.lr.ph, label %._crit_edge

.lr.ph:                                           ; preds = %17
  %19 = getelementptr inbounds nuw i8, ptr %6, i64 16
  %20 = getelementptr inbounds nuw i8, ptr %7, i64 8
  %21 = getelementptr inbounds nuw i8, ptr %7, i64 16
  br label %22

22:                                               ; preds = %.lr.ph, %35
  %23 = load ptr, ptr %19, align 8, !tbaa !97
  %24 = load i8, ptr %23, align 1, !tbaa !99
  %25 = icmp eq i8 %24, 34
  br i1 %25, label %26, label %35

26:                                               ; preds = %22
  store i64 0, ptr %20, align 8, !tbaa !100
  %27 = load ptr, ptr %21, align 8, !tbaa !97
  %.not9.i = icmp eq ptr %27, @strbuf_slopbuf
  br i1 %.not9.i, label %strbuf_setlen.exit, label %28

28:                                               ; preds = %26
  store i8 0, ptr %27, align 1, !tbaa !99
  %.pre = load ptr, ptr %19, align 8, !tbaa !97
  br label %strbuf_setlen.exit

strbuf_setlen.exit:                               ; preds = %26, %28
  %29 = phi ptr [ %23, %26 ], [ %.pre, %28 ]
  %30 = call i32 @unquote_c_style(ptr noundef nonnull %7, ptr noundef %29, ptr noundef null) #13
  %.not26 = icmp eq i32 %30, 0
  br i1 %.not26, label %34, label %31

31:                                               ; preds = %strbuf_setlen.exit
  %32 = call fastcc ptr @_(ptr noundef nonnull @.str.57)
  %33 = load ptr, ptr %19, align 8, !tbaa !97
  call void (ptr, ...) @die(ptr noundef %32, ptr noundef %33) #14
  unreachable

34:                                               ; preds = %strbuf_setlen.exit
  call void @llvm.lifetime.start.p0(i64 24, ptr nonnull %5)
  call void @llvm.memcpy.p0.p0.i64(ptr noundef nonnull align 16 dereferenceable(24) %5, ptr noundef nonnull align 8 dereferenceable(24) %7, i64 24, i1 false)
  call void @llvm.memcpy.p0.p0.i64(ptr noundef nonnull align 8 dereferenceable(24) %7, ptr noundef nonnull align 8 dereferenceable(24) %6, i64 24, i1 false)
  call void @llvm.memcpy.p0.p0.i64(ptr noundef nonnull align 8 dereferenceable(24) %6, ptr noundef nonnull align 16 dereferenceable(24) %5, i64 24, i1 false)
  call void @llvm.lifetime.end.p0(i64 24, ptr nonnull %5)
  br label %35

35:                                               ; preds = %34, %22
  call fastcc void @strbuf_to_cone_pattern(ptr noundef %6, ptr noundef %0)
  %36 = call i32 @strbuf_getline(ptr noundef nonnull %6, ptr noundef nonnull %3) #13
  %.not25 = icmp eq i32 %36, 0
  br i1 %.not25, label %22, label %._crit_edge, !llvm.loop !145

._crit_edge:                                      ; preds = %35, %17
  call void @strbuf_release(ptr noundef nonnull %7) #13
  call void @llvm.lifetime.end.p0(i64 24, ptr nonnull %7) #13
  br label %.loopexit31

37:                                               ; preds = %.lr.ph34, %strbuf_setlen.exit29
  %indvars.iv = phi i64 [ 0, %.lr.ph34 ], [ %indvars.iv.next, %strbuf_setlen.exit29 ]
  store i64 0, ptr %15, align 8, !tbaa !100
  %38 = load ptr, ptr %16, align 8, !tbaa !97
  %.not9.i28 = icmp eq ptr %38, @strbuf_slopbuf
  br i1 %.not9.i28, label %strbuf_setlen.exit29, label %39

39:                                               ; preds = %37
  store i8 0, ptr %38, align 1, !tbaa !99
  br label %strbuf_setlen.exit29

strbuf_setlen.exit29:                             ; preds = %37, %39
  %40 = getelementptr inbounds nuw ptr, ptr %2, i64 %indvars.iv
  %41 = load ptr, ptr %40, align 8, !tbaa !68
  %42 = call i64 @strlen(ptr noundef nonnull dereferenceable(1) %41) #15
  call void @strbuf_add(ptr noundef nonnull %6, ptr noundef nonnull %41, i64 noundef %42) #13
  call fastcc void @strbuf_to_cone_pattern(ptr noundef %6, ptr noundef %0)
  %indvars.iv.next = add nuw nsw i64 %indvars.iv, 1
  %exitcond.not = icmp eq i64 %indvars.iv.next, %wide.trip.count
  br i1 %exitcond.not, label %.loopexit31, label %37, !llvm.loop !146

.loopexit31:                                      ; preds = %strbuf_setlen.exit29, %.preheader30, %._crit_edge
  call void @strbuf_release(ptr noundef nonnull %6) #13
  call void @llvm.lifetime.end.p0(i64 24, ptr nonnull %6) #13
  br label %.loopexit

43:                                               ; preds = %4
  %.not22 = icmp eq ptr %3, null
  br i1 %.not22, label %.preheader, label %45

.preheader:                                       ; preds = %43
  %44 = icmp sgt i32 %1, 0
  br i1 %44, label %.lr.ph40.preheader, label %.loopexit

.lr.ph40.preheader:                               ; preds = %.preheader
  %wide.trip.count45 = zext nneg i32 %1 to i64
  br label %.lr.ph40

45:                                               ; preds = %43
  call void @llvm.lifetime.start.p0(i64 24, ptr nonnull %8) #13
  call void @llvm.memcpy.p0.p0.i64(ptr noundef nonnull align 8 dereferenceable(24) %8, ptr noundef nonnull align 8 dereferenceable(24) @__const.check_rules.unquoted, i64 24, i1 false)
  %46 = call i32 @strbuf_getline(ptr noundef nonnull %8, ptr noundef nonnull %3) #13
  %.not2335 = icmp eq i32 %46, 0
  br i1 %.not2335, label %.lr.ph37, label %._crit_edge38

.lr.ph37:                                         ; preds = %45
  %47 = getelementptr inbounds nuw i8, ptr %8, i64 16
  br label %48

48:                                               ; preds = %.lr.ph37, %48
  %49 = load ptr, ptr %47, align 8, !tbaa !97
  call void @add_pattern(ptr noundef %49, ptr noundef nonnull @.str.8, i32 noundef 0, ptr noundef %0, i32 noundef 0) #13
  %50 = call i32 @strbuf_getline(ptr noundef nonnull %8, ptr noundef nonnull %3) #13
  %.not23 = icmp eq i32 %50, 0
  br i1 %.not23, label %48, label %._crit_edge38, !llvm.loop !147

._crit_edge38:                                    ; preds = %48, %45
  call void @strbuf_release(ptr noundef nonnull %8) #13
  call void @llvm.lifetime.end.p0(i64 24, ptr nonnull %8) #13
  br label %.loopexit

.lr.ph40:                                         ; preds = %.lr.ph40.preheader, %.lr.ph40
  %indvars.iv42 = phi i64 [ 0, %.lr.ph40.preheader ], [ %indvars.iv.next43, %.lr.ph40 ]
  %51 = getelementptr inbounds nuw ptr, ptr %2, i64 %indvars.iv42
  %52 = load ptr, ptr %51, align 8, !tbaa !68
  tail call void @add_pattern(ptr noundef %52, ptr noundef nonnull @.str.8, i32 noundef 0, ptr noundef %0, i32 noundef 0) #13
  %indvars.iv.next43 = add nuw nsw i64 %indvars.iv42, 1
  %exitcond46.not = icmp eq i64 %indvars.iv.next43, %wide.trip.count45
  br i1 %exitcond46.not, label %.loopexit, label %.lr.ph40, !llvm.loop !148

.loopexit:                                        ; preds = %.lr.ph40, %.preheader, %._crit_edge38, %.loopexit31
  ret void
}